; ModuleID = '55/1568.c'
source_filename = "55/1568.c"
target datalayout = "e-m:e-p270:32:32-p271:32:32-p272:64:64-i64:64-f80:128-n8:16:32:64-S128"
target triple = "x86_64-pc-linux-gnu"

@.str = private unnamed_addr constant [7 x i8] c"%d%s%d\00", align 1
@.str.1 = private unnamed_addr constant [2 x i8] c"0\00", align 1
@.str.2 = private unnamed_addr constant [3 x i8] c"%d\00", align 1
@.str.3 = private unnamed_addr constant [3 x i8] c"%c\00", align 1

; Function Attrs: noinline nounwind uwtable
define dso_local i32 @main(i32 %0, i8** %1) #0 {
  %3 = alloca i32, align 4
  %4 = alloca i32, align 4
  %5 = alloca i8**, align 8
  %6 = alloca i32, align 4
  %7 = alloca i32, align 4
  %8 = alloca i32, align 4
  %9 = alloca i32, align 4
  %10 = alloca i32, align 4
  %11 = alloca i32, align 4
  %12 = alloca i32, align 4
  %13 = alloca i32, align 4
  %14 = alloca [100 x i32], align 16
  %15 = alloca i64, align 8
  %16 = alloca [100 x i8], align 16
  store i32 0, i32* %3, align 4
  store i32 %0, i32* %4, align 4
  store i8** %1, i8*** %5, align 8
  store i32 0, i32* %7, align 4
  store i64 0, i64* %15, align 8
  %17 = getelementptr inbounds [100 x i8], [100 x i8]* %16, i64 0, i64 0
  %18 = call i32 (i8*, ...) @__isoc99_scanf(i8* getelementptr inbounds ([7 x i8], [7 x i8]* @.str, i64 0, i64 0), i32* %12, i8* %17, i32* %13)
  %19 = getelementptr inbounds [100 x i8], [100 x i8]* %16, i64 0, i64 0
  %20 = call i64 @strlen(i8* %19) #4
  %21 = trunc i64 %20 to i32
  store i32 %21, i32* %11, align 4
  %22 = getelementptr inbounds [100 x i8], [100 x i8]* %16, i64 0, i64 0
  %23 = load i8, i8* %22, align 16
  %24 = sext i8 %23 to i32
  %25 = icmp eq i32 %24, 48
  br i1 %25, label %26, label %28

26:                                               ; preds = %2
  %27 = call i32 (i8*, ...) @printf(i8* getelementptr inbounds ([2 x i8], [2 x i8]* @.str.1, i64 0, i64 0))
  store i32 0, i32* %3, align 4
  br label %163

28:                                               ; preds = %2
  store i32 0, i32* %6, align 4
  br label %29

29:                                               ; preds = %101, %28
  %30 = load i32, i32* %6, align 4
  %31 = load i32, i32* %11, align 4
  %32 = icmp slt i32 %30, %31
  br i1 %32, label %33, label %104

33:                                               ; preds = %29
  %34 = load i32, i32* %6, align 4
  %35 = sext i32 %34 to i64
  %36 = getelementptr inbounds [100 x i8], [100 x i8]* %16, i64 0, i64 %35
  %37 = load i8, i8* %36, align 1
  %38 = sext i8 %37 to i32
  %39 = icmp sge i32 %38, 48
  br i1 %39, label %40, label %54

40:                                               ; preds = %33
  %41 = load i32, i32* %6, align 4
  %42 = sext i32 %41 to i64
  %43 = getelementptr inbounds [100 x i8], [100 x i8]* %16, i64 0, i64 %42
  %44 = load i8, i8* %43, align 1
  %45 = sext i8 %44 to i32
  %46 = icmp sle i32 %45, 57
  br i1 %46, label %47, label %54

47:                                               ; preds = %40
  %48 = load i32, i32* %6, align 4
  %49 = sext i32 %48 to i64
  %50 = getelementptr inbounds [100 x i8], [100 x i8]* %16, i64 0, i64 %49
  %51 = load i8, i8* %50, align 1
  %52 = sext i8 %51 to i32
  %53 = sub nsw i32 %52, 48
  store i32 %53, i32* %10, align 4
  br label %85

54:                                               ; preds = %40, %33
  %55 = load i32, i32* %6, align 4
  %56 = sext i32 %55 to i64
  %57 = getelementptr inbounds [100 x i8], [100 x i8]* %16, i64 0, i64 %56
  %58 = load i8, i8* %57, align 1
  %59 = sext i8 %58 to i32
  %60 = icmp sge i32 %59, 97
  br i1 %60, label %61, label %76

61:                                               ; preds = %54
  %62 = load i32, i32* %6, align 4
  %63 = sext i32 %62 to i64
  %64 = getelementptr inbounds [100 x i8], [100 x i8]* %16, i64 0, i64 %63
  %65 = load i8, i8* %64, align 1
  %66 = sext i8 %65 to i32
  %67 = icmp sle i32 %66, 122
  br i1 %67, label %68, label %76

68:                                               ; preds = %61
  %69 = load i32, i32* %6, align 4
  %70 = sext i32 %69 to i64
  %71 = getelementptr inbounds [100 x i8], [100 x i8]* %16, i64 0, i64 %70
  %72 = load i8, i8* %71, align 1
  %73 = sext i8 %72 to i32
  %74 = sub nsw i32 %73, 97
  %75 = add nsw i32 %74, 10
  store i32 %75, i32* %10, align 4
  br label %84

76:                                               ; preds = %61, %54
  %77 = load i32, i32* %6, align 4
  %78 = sext i32 %77 to i64
  %79 = getelementptr inbounds [100 x i8], [100 x i8]* %16, i64 0, i64 %78
  %80 = load i8, i8* %79, align 1
  %81 = sext i8 %80 to i32
  %82 = sub nsw i32 %81, 65
  %83 = add nsw i32 %82, 10
  store i32 %83, i32* %10, align 4
  br label %84

84:                                               ; preds = %76, %68
  br label %85

85:                                               ; preds = %84, %47
  %86 = load i32, i32* %10, align 4
  %87 = sitofp i32 %86 to double
  %88 = load i32, i32* %12, align 4
  %89 = sitofp i32 %88 to double
  %90 = load i32, i32* %11, align 4
  %91 = load i32, i32* %6, align 4
  %92 = sub nsw i32 %90, %91
  %93 = sub nsw i32 %92, 1
  %94 = sitofp i32 %93 to double
  %95 = call double @pow(double %89, double %94) #5
  %96 = fmul double %87, %95
  %97 = load i64, i64* %15, align 8
  %98 = sitofp i64 %97 to double
  %99 = fadd double %98, %96
  %100 = fptosi double %99 to i64
  store i64 %100, i64* %15, align 8
  br label %101

101:                                              ; preds = %85
  %102 = load i32, i32* %6, align 4
  %103 = add nsw i32 %102, 1
  store i32 %103, i32* %6, align 4
  br label %29

104:                                              ; preds = %29
  br label %105

105:                                              ; preds = %108, %104
  %106 = load i64, i64* %15, align 8
  %107 = icmp sgt i64 %106, 0
  br i1 %107, label %108, label %123

108:                                              ; preds = %105
  %109 = load i64, i64* %15, align 8
  %110 = load i32, i32* %13, align 4
  %111 = sext i32 %110 to i64
  %112 = srem i64 %109, %111
  %113 = trunc i64 %112 to i32
  %114 = load i32, i32* %7, align 4
  %115 = sext i32 %114 to i64
  %116 = getelementptr inbounds [100 x i32], [100 x i32]* %14, i64 0, i64 %115
  store i32 %113, i32* %116, align 4
  %117 = load i32, i32* %7, align 4
  %118 = add nsw i32 %117, 1
  store i32 %118, i32* %7, align 4
  %119 = load i64, i64* %15, align 8
  %120 = load i32, i32* %13, align 4
  %121 = sext i32 %120 to i64
  %122 = sdiv i64 %119, %121
  store i64 %122, i64* %15, align 8
  br label %105

123:                                              ; preds = %105
  %124 = load i32, i32* %7, align 4
  %125 = sub nsw i32 %124, 1
  store i32 %125, i32* %8, align 4
  br label %126

126:                                              ; preds = %158, %123
  %127 = load i32, i32* %8, align 4
  %128 = icmp sge i32 %127, 0
  br i1 %128, label %129, label %161

129:                                              ; preds = %126
  %130 = load i32, i32* %8, align 4
  %131 = sext i32 %130 to i64
  %132 = getelementptr inbounds [100 x i32], [100 x i32]* %14, i64 0, i64 %131
  %133 = load i32, i32* %132, align 4
  %134 = icmp sge i32 %133, 0
  br i1 %134, label %135, label %147

135:                                              ; preds = %129
  %136 = load i32, i32* %8, align 4
  %137 = sext i32 %136 to i64
  %138 = getelementptr inbounds [100 x i32], [100 x i32]* %14, i64 0, i64 %137
  %139 = load i32, i32* %138, align 4
  %140 = icmp sle i32 %139, 9
  br i1 %140, label %141, label %147

141:                                              ; preds = %135
  %142 = load i32, i32* %8, align 4
  %143 = sext i32 %142 to i64
  %144 = getelementptr inbounds [100 x i32], [100 x i32]* %14, i64 0, i64 %143
  %145 = load i32, i32* %144, align 4
  %146 = call i32 (i8*, ...) @printf(i8* getelementptr inbounds ([3 x i8], [3 x i8]* @.str.2, i64 0, i64 0), i32 %145)
  br label %157

147:                                              ; preds = %135, %129
  %148 = load i32, i32* %8, align 4
  %149 = sext i32 %148 to i64
  %150 = getelementptr inbounds [100 x i32], [100 x i32]* %14, i64 0, i64 %149
  %151 = load i32, i32* %150, align 4
  %152 = sub nsw i32 %151, 10
  %153 = trunc i32 %152 to i8
  %154 = sext i8 %153 to i32
  %155 = add nsw i32 %154, 65
  %156 = call i32 (i8*, ...) @printf(i8* getelementptr inbounds ([3 x i8], [3 x i8]* @.str.3, i64 0, i64 0), i32 %155)
  br label %157

157:                                              ; preds = %147, %141
  br label %158

158:                                              ; preds = %157
  %159 = load i32, i32* %8, align 4
  %160 = add nsw i32 %159, -1
  store i32 %160, i32* %8, align 4
  br label %126

161:                                              ; preds = %126
  br label %162

162:                                              ; preds = %161
  store i32 0, i32* %3, align 4
  br label %163

163:                                              ; preds = %162, %26
  %164 = load i32, i32* %3, align 4
  ret i32 %164
}

declare dso_local i32 @__isoc99_scanf(i8*, ...) #1

; Function Attrs: nounwind readonly
declare dso_local i64 @strlen(i8*) #2

declare dso_local i32 @printf(i8*, ...) #1

; Function Attrs: nounwind
declare dso_local double @pow(double, double) #3


!llvm.module.flags = !{!0}
!llvm.ident = !{!1}

!0 = !{i32 1, !"wchar_size", i32 4}
!1 = !{!"clang version 10.0.0-4ubuntu1 "}
